#include <math.h>
#include <stdio.h>
#include <stdlib.h>
#include <string.h>

int main()
{  
	int n,k;
	scanf("%d%d",&n,&k);
	int sz[1000];
	int i;
	for(i=0;i<n;i+=1)
	{scanf("%d",&(sz[i]));							}
for(int l=0;l<=n-1;l+=1)
{for(i=1;i<n;i+=1){if(sz[l]+sz[i]==k)
{printf("yes");return 0;}}
if(l==n-1){printf("no");}											}
													
	
	
	
	
	
	return 0;
	}